target datalayout = "e-m:e-p270:32:32-p271:32:32-p272:64:64-i64:64-i128:128-f80:128-n8:16:32:64-S128"
target triple = "x86_64-pc-linux-gnu"

%struct.JSValue = type { %union.JSValueUnion, i64 }
%union.JSValueUnion = type { double }
%struct.JSRefCountHeader = type { i32 }
%struct.list_head = type { ptr, ptr }
%struct.JSWorkerMessageHandler = type { %struct.list_head, ptr, %struct.JSValue }
%struct.JSWorkerData = type { ptr, ptr, ptr }

@js_worker_class_id = internal global i32 0, align 4

; Function Attrs: nounwind uwtable
define internal { i64, i64 } @JS_DupValue(ptr noundef %0, i64 %1, i64 %2) #0 {
  %4 = alloca %struct.JSValue, align 8
  %5 = alloca %struct.JSValue, align 8
  %6 = alloca ptr, align 8
  %7 = alloca ptr, align 8
  %8 = getelementptr inbounds { i64, i64 }, ptr %5, i32 0, i32 0
  store i64 %1, ptr %8, align 8
  %9 = getelementptr inbounds { i64, i64 }, ptr %5, i32 0, i32 1
  store i64 %2, ptr %9, align 8
  store ptr %0, ptr %6, align 8
  %10 = getelementptr inbounds %struct.JSValue, ptr %5, i32 0, i32 1
  %11 = load i64, ptr %10, align 8
  %12 = trunc i64 %11 to i32
  %13 = icmp uge i32 %12, -11
  br i1 %13, label %14, label %21

14:                                               ; preds = %3
  %15 = getelementptr inbounds %struct.JSValue, ptr %5, i32 0, i32 0
  %16 = load ptr, ptr %15, align 8
  store ptr %16, ptr %7, align 8
  %17 = load ptr, ptr %7, align 8
  %18 = getelementptr inbounds %struct.JSRefCountHeader, ptr %17, i32 0, i32 0
  %19 = load i32, ptr %18, align 4
  %20 = add i32 %19, 1
  store i32 %20, ptr %18, align 4
  br label %21

21:                                               ; preds = %14, %3
  call void @llvm.memcpy.p0.p0.i64(ptr align 8 %4, ptr align 8 %5, i64 16, i1 false)
  %22 = load { i64, i64 }, ptr %4, align 8
  ret { i64, i64 } %22
}

; Function Attrs: nounwind uwtable
define internal { i64, i64 } @js_worker_get_onmessage(ptr noundef %0, i64 %1, i64 %2) #0 {
  %4 = alloca %struct.JSValue, align 8
  %5 = alloca %struct.JSValue, align 8
  %6 = alloca ptr, align 8
  %7 = alloca ptr, align 8
  %8 = alloca ptr, align 8
  %9 = getelementptr inbounds { i64, i64 }, ptr %5, i32 0, i32 0
  store i64 %1, ptr %9, align 8
  %10 = getelementptr inbounds { i64, i64 }, ptr %5, i32 0, i32 1
  store i64 %2, ptr %10, align 8
  store ptr %0, ptr %6, align 8
  %11 = load ptr, ptr %6, align 8
  %12 = load i32, ptr @js_worker_class_id, align 4
  %13 = getelementptr inbounds { i64, i64 }, ptr %5, i32 0, i32 0
  %14 = load i64, ptr %13, align 8
  %15 = getelementptr inbounds { i64, i64 }, ptr %5, i32 0, i32 1
  %16 = load i64, ptr %15, align 8
  %17 = call ptr @JS_GetOpaque2(ptr noundef %11, i64 %14, i64 %16, i32 noundef %12)
  store ptr %17, ptr %7, align 8
  %18 = load ptr, ptr %7, align 8
  %19 = icmp ne ptr %18, null
  br i1 %19, label %23, label %20

20:                                               ; preds = %3
  %21 = getelementptr inbounds %struct.JSValue, ptr %4, i32 0, i32 0
  store i32 0, ptr %21, align 8
  %22 = getelementptr inbounds %struct.JSValue, ptr %4, i32 0, i32 1
  store i64 6, ptr %22, align 8
  br label %45

23:                                               ; preds = %3
  %24 = load ptr, ptr %7, align 8
  %25 = getelementptr inbounds %struct.JSWorkerData, ptr %24, i32 0, i32 2
  %26 = load ptr, ptr %25, align 8
  store ptr %26, ptr %8, align 8
  %27 = load ptr, ptr %8, align 8
  %28 = icmp ne ptr %27, null
  br i1 %28, label %29, label %42

29:                                               ; preds = %23
  %30 = load ptr, ptr %6, align 8
  %31 = load ptr, ptr %8, align 8
  %32 = getelementptr inbounds %struct.JSWorkerMessageHandler, ptr %31, i32 0, i32 2
  %33 = getelementptr inbounds { i64, i64 }, ptr %32, i32 0, i32 0
  %34 = load i64, ptr %33, align 8
  %35 = getelementptr inbounds { i64, i64 }, ptr %32, i32 0, i32 1
  %36 = load i64, ptr %35, align 8
  %37 = call { i64, i64 } @JS_DupValue(ptr noundef %30, i64 %34, i64 %36)
  %38 = getelementptr inbounds { i64, i64 }, ptr %4, i32 0, i32 0
  %39 = extractvalue { i64, i64 } %37, 0
  store i64 %39, ptr %38, align 8
  %40 = getelementptr inbounds { i64, i64 }, ptr %4, i32 0, i32 1
  %41 = extractvalue { i64, i64 } %37, 1
  store i64 %41, ptr %40, align 8
  br label %45

42:                                               ; preds = %23
  %43 = getelementptr inbounds %struct.JSValue, ptr %4, i32 0, i32 0
  store i32 0, ptr %43, align 8
  %44 = getelementptr inbounds %struct.JSValue, ptr %4, i32 0, i32 1
  store i64 2, ptr %44, align 8
  br label %45

45:                                               ; preds = %42, %29, %20
  %46 = load { i64, i64 }, ptr %4, align 8
  ret { i64, i64 } %46
}