; Function Attrs: nounwind uwtable
define internal { i64, i64 } @js_worker_get_onmessage(ptr noundef %0, i64 %1, i64 %2) #0 {
  %4 = load i32, ptr @js_worker_class_id, align 4
  %5 = tail call ptr @JS_GetOpaque2(ptr noundef %0, i64 %1, i64 %2, i32 noundef %4) #29
  %.not = icmp eq ptr %5, null
  br i1 %.not, label %21, label %6

6:                                                ; preds = %3
  %7 = getelementptr inbounds i8, ptr %5, i64 16
  %8 = load ptr, ptr %7, align 8
  %.not10 = icmp eq ptr %8, null
  br i1 %.not10, label %21, label %9

9:                                                ; preds = %6
  %10 = getelementptr inbounds i8, ptr %8, i64 24
  %11 = load i64, ptr %10, align 8
  %12 = getelementptr inbounds i8, ptr %8, i64 32
  %13 = load i64, ptr %12, align 8
  %14 = trunc i64 %13 to i32
  %15 = icmp ugt i32 %14, -12
  br i1 %15, label %16, label %JS_DupValue.exit

16:                                               ; preds = %9
  %17 = inttoptr i64 %11 to ptr
  %18 = load i32, ptr %17, align 4
  %19 = add i32 %18, 1
  store i32 %19, ptr %17, align 4
  br label %JS_DupValue.exit

JS_DupValue.exit:                                 ; preds = %9, %16
  %.sroa.4.0.extract.shift = and i64 %11, -4294967296
  %20 = and i64 %11, 4294967295
  br label %21

21:                                               ; preds = %6, %3, %JS_DupValue.exit
  %.sroa.06.0 = phi i64 [ %20, %JS_DupValue.exit ], [ 0, %3 ], [ 0, %6 ]
  %.sroa.4.sroa.0.0 = phi i64 [ %.sroa.4.0.extract.shift, %JS_DupValue.exit ], [ 0, %3 ], [ 0, %6 ]
  %.sroa.4.sroa.2.0 = phi i64 [ %13, %JS_DupValue.exit ], [ 6, %3 ], [ 2, %6 ]
  %.sroa.06.0.insert.insert = or disjoint i64 %.sroa.4.sroa.0.0, %.sroa.06.0
  %.fca.0.insert = insertvalue { i64, i64 } poison, i64 %.sroa.06.0.insert.insert, 0
  %.fca.1.insert = insertvalue { i64, i64 } %.fca.0.insert, i64 %.sroa.4.sroa.2.0, 1
  ret { i64, i64 } %.fca.1.insert
}